; Function Attrs: mustprogress uwtable
define dso_local void @_ZNSt3__15mutex4lockEv(ptr noundef nonnull align 8 dereferenceable(40) %0) local_unnamed_addr #0 align 2 {
  %2 = tail call noundef i32 @pthread_mutex_lock(ptr noundef nonnull %0) #10
  %.not = icmp eq i32 %2, 0
  br i1 %.not, label %4, label %3

3:                                                ; preds = %1
  tail call void @_ZNSt3__120__throw_system_errorEiPKc(i32 noundef %2, ptr noundef nonnull @.str) #11
  unreachable

4:                                                ; preds = %1
  ret void
}